target datalayout = "e-m:e-p270:32:32-p271:32:32-p272:64:64-i64:64-i128:128-f80:128-n8:16:32:64-S128"
target triple = "x86_64-pc-linux-gnu"

%"struct.icu_77::Norm" = type { ptr, ptr, i32, i32, i32, ptr, i8, i8, i8, i8, i8, i8, i32, i32, ptr }
%"class.icu_77::Norms" = type { %"class.icu_77::UnicodeSet", %"class.icu_77::UnicodeSet", ptr, ptr, ptr }
%"class.icu_77::UnicodeSet" = type <{ %"class.icu_77::UnicodeFilter", ptr, i32, i32, i8, [7 x i8], ptr, ptr, i32, [4 x i8], ptr, i32, [4 x i8], ptr, ptr, [25 x i32], [4 x i8] }>
%"class.icu_77::UnicodeFilter" = type { %"class.icu_77::UnicodeFunctor", %"class.icu_77::UnicodeMatcher" }
%"class.icu_77::UnicodeFunctor" = type { %"class.icu_77::UObject" }
%"class.icu_77::UObject" = type { ptr }
%"class.icu_77::UnicodeMatcher" = type { ptr }

; Function Attrs: mustprogress nounwind uwtable
define dso_local void @_ZN6icu_775NormsD2Ev(ptr noundef nonnull align 8 dereferenceable(424) %0) unnamed_addr #1 align 2 personality ptr @__gxx_personality_v0 {
  %2 = alloca ptr, align 8
  %3 = alloca i32, align 4
  %4 = alloca i32, align 4
  store ptr %0, ptr %2, align 8, !tbaa !38
  %5 = load ptr, ptr %2, align 8
  %6 = getelementptr inbounds nuw %"class.icu_77::Norms", ptr %5, i32 0, i32 2
  %7 = load ptr, ptr %6, align 8, !tbaa !41
  invoke void @umutablecptrie_close_77(ptr noundef %7)
          to label %8 unwind label %67

8:                                                ; preds = %1
  call void @llvm.lifetime.start.p0(i64 4, ptr %3) #11
  %9 = getelementptr inbounds nuw %"class.icu_77::Norms", ptr %5, i32 0, i32 3
  %10 = load ptr, ptr %9, align 8, !tbaa !54
  %11 = invoke i32 @utm_countItems(ptr noundef %10)
          to label %12 unwind label %67

12:                                               ; preds = %8
  store i32 %11, ptr %3, align 4, !tbaa !9
  call void @llvm.lifetime.start.p0(i64 4, ptr %4) #11
  store i32 1, ptr %4, align 4, !tbaa !9
  br label %13

13:                                               ; preds = %58, %12
  %14 = load i32, ptr %4, align 4, !tbaa !9
  %15 = load i32, ptr %3, align 4, !tbaa !9
  %16 = icmp slt i32 %14, %15
  br i1 %16, label %18, label %17

17:                                               ; preds = %13
  call void @llvm.lifetime.end.p0(i64 4, ptr %4) #11
  br label %61

18:                                               ; preds = %13
  %19 = getelementptr inbounds nuw %"class.icu_77::Norms", ptr %5, i32 0, i32 4
  %20 = load ptr, ptr %19, align 8, !tbaa !55
  %21 = load i32, ptr %4, align 4, !tbaa !9
  %22 = sext i32 %21 to i64
  %23 = getelementptr inbounds %"struct.icu_77::Norm", ptr %20, i64 %22
  %24 = getelementptr inbounds nuw %"struct.icu_77::Norm", ptr %23, i32 0, i32 0
  %25 = load ptr, ptr %24, align 8, !tbaa !57
  %26 = icmp eq ptr %25, null
  br i1 %26, label %31, label %27

27:                                               ; preds = %18
  %28 = load ptr, ptr %25, align 8, !tbaa !58
  %29 = getelementptr inbounds ptr, ptr %28, i64 1
  %30 = load ptr, ptr %29, align 8
  call void %30(ptr noundef nonnull align 8 dereferenceable(64) %25) #11
  br label %31

31:                                               ; preds = %27, %18
  %32 = getelementptr inbounds nuw %"class.icu_77::Norms", ptr %5, i32 0, i32 4
  %33 = load ptr, ptr %32, align 8, !tbaa !55
  %34 = load i32, ptr %4, align 4, !tbaa !9
  %35 = sext i32 %34 to i64
  %36 = getelementptr inbounds %"struct.icu_77::Norm", ptr %33, i64 %35
  %37 = getelementptr inbounds nuw %"struct.icu_77::Norm", ptr %36, i32 0, i32 1
  %38 = load ptr, ptr %37, align 8, !tbaa !60
  %39 = icmp eq ptr %38, null
  br i1 %39, label %44, label %40

40:                                               ; preds = %31
  %41 = load ptr, ptr %38, align 8, !tbaa !58
  %42 = getelementptr inbounds ptr, ptr %41, i64 1
  %43 = load ptr, ptr %42, align 8
  call void %43(ptr noundef nonnull align 8 dereferenceable(64) %38) #11
  br label %44

44:                                               ; preds = %40, %31
  %45 = getelementptr inbounds nuw %"class.icu_77::Norms", ptr %5, i32 0, i32 4
  %46 = load ptr, ptr %45, align 8, !tbaa !55
  %47 = load i32, ptr %4, align 4, !tbaa !9
  %48 = sext i32 %47 to i64
  %49 = getelementptr inbounds %"struct.icu_77::Norm", ptr %46, i64 %48
  %50 = getelementptr inbounds nuw %"struct.icu_77::Norm", ptr %49, i32 0, i32 5
  %51 = load ptr, ptr %50, align 8, !tbaa !32
  %52 = icmp eq ptr %51, null
  br i1 %52, label %57, label %53

53:                                               ; preds = %44
  %54 = load ptr, ptr %51, align 8, !tbaa !58
  %55 = getelementptr inbounds ptr, ptr %54, i64 1
  %56 = load ptr, ptr %55, align 8
  call void %56(ptr noundef nonnull align 8 dereferenceable(32) %51) #11
  br label %57

57:                                               ; preds = %53, %44
  br label %58

58:                                               ; preds = %57
  %59 = load i32, ptr %4, align 4, !tbaa !9
  %60 = add nsw i32 %59, 1
  store i32 %60, ptr %4, align 4, !tbaa !9
  br label %13, !llvm.loop !61

61:                                               ; preds = %17
  %62 = getelementptr inbounds nuw %"class.icu_77::Norms", ptr %5, i32 0, i32 3
  %63 = load ptr, ptr %62, align 8, !tbaa !54
  invoke void @utm_close(ptr noundef %63)
          to label %64 unwind label %67

64:                                               ; preds = %61
  call void @llvm.lifetime.end.p0(i64 4, ptr %3) #11
  %65 = getelementptr inbounds nuw %"class.icu_77::Norms", ptr %5, i32 0, i32 1
  call void @_ZN6icu_7710UnicodeSetD1Ev(ptr noundef nonnull align 8 dereferenceable(200) %65) #11
  %66 = getelementptr inbounds nuw %"class.icu_77::Norms", ptr %5, i32 0, i32 0
  call void @_ZN6icu_7710UnicodeSetD1Ev(ptr noundef nonnull align 8 dereferenceable(200) %66) #11
  ret void

67:                                               ; preds = %61, %8, %1
  %68 = landingpad { ptr, i32 }
          catch ptr null
  %69 = extractvalue { ptr, i32 } %68, 0
  call void @__clang_call_terminate(ptr %69) #12
  unreachable
}