; Function Attrs: mustprogress nounwind uwtable
define dso_local void @_ZN6icu_775NormsD2Ev(ptr noundef nonnull align 8 dereferenceable(424) %0) unnamed_addr #6 align 2 personality ptr @__gxx_personality_v0 {
  %2 = getelementptr inbounds nuw i8, ptr %0, i64 400
  %3 = load ptr, ptr %2, align 8, !tbaa !34
  invoke void @umutablecptrie_close_77(ptr noundef %3)
          to label %4 unwind label %41

4:                                                ; preds = %1
  %5 = getelementptr inbounds nuw i8, ptr %0, i64 408
  %6 = load ptr, ptr %5, align 8, !tbaa !47
  %7 = invoke i32 @utm_countItems(ptr noundef %6)
          to label %.preheader unwind label %41

.preheader:                                       ; preds = %4
  %8 = icmp sgt i32 %7, 1
  br i1 %8, label %.lr.ph, label %._crit_edge

.lr.ph:                                           ; preds = %.preheader
  %9 = getelementptr inbounds nuw i8, ptr %0, i64 416
  %wide.trip.count = zext nneg i32 %7 to i64
  br label %11

._crit_edge:                                      ; preds = %38, %.preheader
  %10 = load ptr, ptr %5, align 8, !tbaa !47
  invoke void @utm_close(ptr noundef %10)
          to label %39 unwind label %41

11:                                               ; preds = %.lr.ph, %38
  %indvars.iv = phi i64 [ 1, %.lr.ph ], [ %indvars.iv.next, %38 ]
  %12 = load ptr, ptr %9, align 8, !tbaa !48
  %13 = getelementptr inbounds nuw %"struct.icu_77::Norm", ptr %12, i64 %indvars.iv
  %14 = load ptr, ptr %13, align 8, !tbaa !50
  %15 = icmp eq ptr %14, null
  br i1 %15, label %20, label %16

16:                                               ; preds = %11
  %17 = load ptr, ptr %14, align 8, !tbaa !51
  %18 = getelementptr inbounds nuw i8, ptr %17, i64 8
  %19 = load ptr, ptr %18, align 8
  tail call void %19(ptr noundef nonnull align 8 dereferenceable(64) %14) #18
  %.pre = load ptr, ptr %9, align 8, !tbaa !48
  br label %20

20:                                               ; preds = %16, %11
  %21 = phi ptr [ %.pre, %16 ], [ %12, %11 ]
  %22 = getelementptr inbounds nuw %"struct.icu_77::Norm", ptr %21, i64 %indvars.iv, i32 1
  %23 = load ptr, ptr %22, align 8, !tbaa !53
  %24 = icmp eq ptr %23, null
  br i1 %24, label %29, label %25

25:                                               ; preds = %20
  %26 = load ptr, ptr %23, align 8, !tbaa !51
  %27 = getelementptr inbounds nuw i8, ptr %26, i64 8
  %28 = load ptr, ptr %27, align 8
  tail call void %28(ptr noundef nonnull align 8 dereferenceable(64) %23) #18
  %.pre11 = load ptr, ptr %9, align 8, !tbaa !48
  br label %29

29:                                               ; preds = %25, %20
  %30 = phi ptr [ %.pre11, %25 ], [ %21, %20 ]
  %31 = getelementptr inbounds nuw %"struct.icu_77::Norm", ptr %30, i64 %indvars.iv, i32 5
  %32 = load ptr, ptr %31, align 8, !tbaa !17
  %33 = icmp eq ptr %32, null
  br i1 %33, label %38, label %34

34:                                               ; preds = %29
  %35 = load ptr, ptr %32, align 8, !tbaa !51
  %36 = getelementptr inbounds nuw i8, ptr %35, i64 8
  %37 = load ptr, ptr %36, align 8
  tail call void %37(ptr noundef nonnull align 8 dereferenceable(32) %32) #18
  br label %38

38:                                               ; preds = %29, %34
  %indvars.iv.next = add nuw nsw i64 %indvars.iv, 1
  %exitcond.not = icmp eq i64 %indvars.iv.next, %wide.trip.count
  br i1 %exitcond.not, label %._crit_edge, label %11, !llvm.loop !54

39:                                               ; preds = %._crit_edge
  %40 = getelementptr inbounds nuw i8, ptr %0, i64 200
  tail call void @_ZN6icu_7710UnicodeSetD1Ev(ptr noundef nonnull align 8 dereferenceable(200) %40) #18
  tail call void @_ZN6icu_7710UnicodeSetD1Ev(ptr noundef nonnull align 8 dereferenceable(200) %0) #18
  ret void

41:                                               ; preds = %._crit_edge, %4, %1
  %42 = landingpad { ptr, i32 }
          catch ptr null
  %43 = extractvalue { ptr, i32 } %42, 0
  tail call void @__clang_call_terminate(ptr %43) #19
  unreachable
}